; Function Attrs: mustprogress nounwind uwtable
define hidden noundef zeroext i1 @_ZNK13MethodMatcher7matchesERK12methodHandle(ptr nocapture noundef nonnull readonly align 8 dereferenceable(32) %0, ptr nocapture noundef nonnull readonly align 8 dereferenceable(16) %1) local_unnamed_addr #1 align 2 {
  %3 = load ptr, ptr %1, align 8
  %4 = getelementptr inbounds i8, ptr %3, i64 8
  %5 = load ptr, ptr %4, align 8
  %6 = getelementptr inbounds i8, ptr %5, i64 8
  %7 = load ptr, ptr %6, align 8
  %8 = getelementptr inbounds i8, ptr %7, i64 24
  %9 = load ptr, ptr %8, align 8
  %10 = getelementptr inbounds i8, ptr %9, i64 24
  %11 = load ptr, ptr %10, align 8
  %12 = getelementptr inbounds i8, ptr %5, i64 36
  %13 = load i16, ptr %12, align 4
  %14 = getelementptr inbounds i8, ptr %7, i64 72
  %15 = zext i16 %13 to i64
  %16 = getelementptr inbounds i64, ptr %14, i64 %15
  %17 = load ptr, ptr %16, align 8
  %18 = getelementptr inbounds i8, ptr %5, i64 38
  %19 = load i16, ptr %18, align 2
  %20 = zext i16 %19 to i64
  %21 = getelementptr inbounds i64, ptr %14, i64 %20
  %22 = load ptr, ptr %21, align 8
  %23 = load ptr, ptr %0, align 8
  %24 = getelementptr inbounds i8, ptr %0, i64 24
  %25 = load i32, ptr %24, align 8
  %26 = tail call noundef zeroext i1 @_ZNK13MethodMatcher5matchEP6SymbolS1_NS_4ModeE(ptr nonnull align 8 poison, ptr noundef %11, ptr noundef %23, i32 noundef %25)
  br i1 %26, label %27, label %39

27:                                               ; preds = %2
  %28 = getelementptr inbounds i8, ptr %0, i64 8
  %29 = load ptr, ptr %28, align 8
  %30 = getelementptr inbounds i8, ptr %0, i64 28
  %31 = load i32, ptr %30, align 4
  %32 = tail call noundef zeroext i1 @_ZNK13MethodMatcher5matchEP6SymbolS1_NS_4ModeE(ptr nonnull align 8 poison, ptr noundef %17, ptr noundef %29, i32 noundef %31)
  br i1 %32, label %33, label %39

33:                                               ; preds = %27
  %34 = getelementptr inbounds i8, ptr %0, i64 16
  %35 = load ptr, ptr %34, align 8
  %36 = icmp eq ptr %35, null
  br i1 %36, label %40, label %37

37:                                               ; preds = %33
  %38 = tail call noundef zeroext i1 @_ZNK13MethodMatcher5matchEP6SymbolS1_NS_4ModeE(ptr nonnull align 8 poison, ptr noundef %22, ptr noundef nonnull %35, i32 noundef 1)
  br i1 %38, label %40, label %39

39:                                               ; preds = %37, %27, %2
  br label %40

40:                                               ; preds = %33, %37, %39
  %.0 = phi i1 [ false, %39 ], [ true, %37 ], [ true, %33 ]
  ret i1 %.0
}